target datalayout = "e-m:e-p270:32:32-p271:32:32-p272:64:64-i64:64-i128:128-f80:128-n8:16:32:64-S128"
target triple = "x86_64-pc-linux-gnu"

%struct._fvalue_t = type { ptr, %union.anon.1 }
%union.anon.1 = type { %struct._protocol_value_t }
%struct._protocol_value_t = type { ptr, i32, ptr, i8 }

; Function Attrs: null_pointer_is_valid sspstrong uwtable
define internal void @value_free(ptr noundef %0) #0 {
  %2 = alloca ptr, align 8
  store ptr %0, ptr %2, align 8
  %3 = load ptr, ptr %2, align 8
  %4 = getelementptr inbounds nuw %struct._fvalue_t, ptr %3, i32 0, i32 1
  %5 = getelementptr inbounds nuw %struct._protocol_value_t, ptr %4, i32 0, i32 0
  %6 = load ptr, ptr %5, align 8
  %7 = icmp ne ptr %6, null
  br i1 %7, label %8, label %19

8:                                                ; preds = %1
  %9 = load ptr, ptr %2, align 8
  %10 = getelementptr inbounds nuw %struct._fvalue_t, ptr %9, i32 0, i32 1
  %11 = getelementptr inbounds nuw %struct._protocol_value_t, ptr %10, i32 0, i32 3
  %12 = load i8, ptr %11, align 8, !range !6, !noundef !7
  %13 = trunc i8 %12 to i1
  br i1 %13, label %14, label %19

14:                                               ; preds = %8
  %15 = load ptr, ptr %2, align 8
  %16 = getelementptr inbounds nuw %struct._fvalue_t, ptr %15, i32 0, i32 1
  %17 = getelementptr inbounds nuw %struct._protocol_value_t, ptr %16, i32 0, i32 0
  %18 = load ptr, ptr %17, align 8
  call void @tvb_free_chain(ptr noundef %18)
  br label %19

19:                                               ; preds = %14, %8, %1
  %20 = load ptr, ptr %2, align 8
  %21 = getelementptr inbounds nuw %struct._fvalue_t, ptr %20, i32 0, i32 1
  %22 = getelementptr inbounds nuw %struct._protocol_value_t, ptr %21, i32 0, i32 2
  %23 = load ptr, ptr %22, align 8
  call void @g_free(ptr noundef %23)
  ret void
}

; Function Attrs: null_pointer_is_valid sspstrong uwtable
define internal void @value_set(ptr noundef %0, ptr noundef %1, ptr noundef %2, i32 noundef %3) #0 {
  %5 = alloca ptr, align 8
  %6 = alloca ptr, align 8
  %7 = alloca ptr, align 8
  %8 = alloca i32, align 4
  store ptr %0, ptr %5, align 8
  store ptr %1, ptr %6, align 8
  store ptr %2, ptr %7, align 8
  store i32 %3, ptr %8, align 4
  %9 = load ptr, ptr %5, align 8
  call void @value_free(ptr noundef %9)
  %10 = load ptr, ptr %6, align 8
  %11 = load ptr, ptr %5, align 8
  %12 = getelementptr inbounds nuw %struct._fvalue_t, ptr %11, i32 0, i32 1
  %13 = getelementptr inbounds nuw %struct._protocol_value_t, ptr %12, i32 0, i32 0
  store ptr %10, ptr %13, align 8
  %14 = load ptr, ptr %7, align 8
  %15 = call noalias ptr @g_strdup(ptr noundef %14)
  %16 = load ptr, ptr %5, align 8
  %17 = getelementptr inbounds nuw %struct._fvalue_t, ptr %16, i32 0, i32 1
  %18 = getelementptr inbounds nuw %struct._protocol_value_t, ptr %17, i32 0, i32 2
  store ptr %15, ptr %18, align 8
  %19 = load i32, ptr %8, align 4
  %20 = load ptr, ptr %5, align 8
  %21 = getelementptr inbounds nuw %struct._fvalue_t, ptr %20, i32 0, i32 1
  %22 = getelementptr inbounds nuw %struct._protocol_value_t, ptr %21, i32 0, i32 1
  store i32 %19, ptr %22, align 8
  ret void
}