; Function Attrs: null_pointer_is_valid sspstrong uwtable
define internal void @value_set(ptr noundef captures(none) initializes((16, 20)) %0, ptr noundef %1, ptr noundef %2, i32 noundef %3) #0 {
  %5 = getelementptr inbounds nuw i8, ptr %0, i64 8
  %6 = load ptr, ptr %5, align 8
  %.not.i = icmp eq ptr %6, null
  br i1 %.not.i, label %value_free.exit, label %7

7:                                                ; preds = %4
  %8 = getelementptr inbounds nuw i8, ptr %0, i64 32
  %9 = load i8, ptr %8, align 8, !range !6, !noundef !7
  %10 = trunc nuw i8 %9 to i1
  br i1 %10, label %11, label %value_free.exit

11:                                               ; preds = %7
  tail call void @tvb_free_chain(ptr noundef nonnull %6)
  br label %value_free.exit

value_free.exit:                                  ; preds = %4, %7, %11
  %12 = getelementptr inbounds nuw i8, ptr %0, i64 24
  %13 = load ptr, ptr %12, align 8
  tail call void @g_free(ptr noundef %13)
  store ptr %1, ptr %5, align 8
  %14 = tail call noalias ptr @g_strdup(ptr noundef %2)
  store ptr %14, ptr %12, align 8
  %15 = getelementptr inbounds nuw i8, ptr %0, i64 16
  store i32 %3, ptr %15, align 8
  ret void
}